target datalayout = "e-m:e-p270:32:32-p271:32:32-p272:64:64-i64:64-i128:128-f80:128-n8:16:32:64-S128"
target triple = "x86_64-pc-linux-gnu"

%struct.H5VL_loc_params_t = type { i32, i32, %union.anon.0 }
%union.anon.0 = type { %struct.H5VL_loc_by_idx }
%struct.H5VL_loc_by_idx = type { ptr, i32, i32, i64, i64 }
%struct.H5VL_attr_specific_args_t = type { i32, %union.anon.4 }
%union.anon.4 = type { %struct.H5VL_attr_iterate_args_t }
%struct.H5VL_attr_iterate_args_t = type { i32, i32, ptr, ptr, ptr }
%struct.anon.7 = type { ptr, ptr }

@.str = private unnamed_addr constant [97 x i8] c"generated/home/dtcxzyw/WorkSpace/Projects/compilers/llvm-opt-benchmark/bench/hdf5/hdf5/src/H5A.c\00", align 1
@H5E_CANTSET_g = external global i64, align 8
@H5E_ATTR_g = external global i64, align 8
@H5E_ARGS_g = external global i64, align 8
@H5E_BADTYPE_g = external global i64, align 8
@H5P_LST_DATASET_XFER_ID_g = external global i64, align 8
@H5E_BADVALUE_g = external global i64, align 8
@.str.43 = private unnamed_addr constant [39 x i8] c"location is not valid for an attribute\00", align 1
@H5E_CANTRENAME_g = external global i64, align 8
@.str.88 = private unnamed_addr constant [34 x i8] c"can't set object access arguments\00", align 1
@.str.99 = private unnamed_addr constant [34 x i8] c"old attribute name cannot be NULL\00", align 1
@.str.100 = private unnamed_addr constant [45 x i8] c"old attribute name cannot be an empty string\00", align 1
@.str.101 = private unnamed_addr constant [34 x i8] c"new attribute name cannot be NULL\00", align 1
@.str.102 = private unnamed_addr constant [45 x i8] c"new attribute name cannot be an empty string\00", align 1
@.str.103 = private unnamed_addr constant [23 x i8] c"can't rename attribute\00", align 1
@__func__.H5A__rename_common = private unnamed_addr constant [19 x i8] c"H5A__rename_common\00", align 1
@.str.104 = private unnamed_addr constant [41 x i8] c"can't rename attribute from '%s' to '%s'\00", align 1
@__func__.H5A__rename_by_name_api_common = private unnamed_addr constant [31 x i8] c"H5A__rename_by_name_api_common\00", align 1

; Function Attrs: nounwind uwtable
define internal i32 @H5A__rename_common(ptr noundef %0, ptr noundef %1, ptr noundef %2, ptr noundef %3, ptr noundef %4) #0 {
  %6 = alloca ptr, align 8
  %7 = alloca ptr, align 8
  %8 = alloca ptr, align 8
  %9 = alloca ptr, align 8
  %10 = alloca ptr, align 8
  %11 = alloca i32, align 4
  %12 = alloca i8, align 1
  %13 = alloca %struct.H5VL_attr_specific_args_t, align 8
  store ptr %0, ptr %6, align 8
  store ptr %1, ptr %7, align 8
  store ptr %2, ptr %8, align 8
  store ptr %3, ptr %9, align 8
  store ptr %4, ptr %10, align 8
  store i32 0, ptr %11, align 4
  store i8 0, ptr %12, align 1
  %14 = load ptr, ptr %8, align 8
  %15 = load ptr, ptr %9, align 8
  %16 = call i32 @strcmp(ptr noundef %14, ptr noundef %15) #3
  %17 = icmp ne i32 %16, 0
  br i1 %17, label %18, label %50

18:                                               ; preds = %5
  %19 = getelementptr inbounds %struct.H5VL_attr_specific_args_t, ptr %13, i32 0, i32 0
  store i32 4, ptr %19, align 8
  %20 = load ptr, ptr %8, align 8
  %21 = getelementptr inbounds %struct.H5VL_attr_specific_args_t, ptr %13, i32 0, i32 1
  %22 = getelementptr inbounds %struct.anon.7, ptr %21, i32 0, i32 0
  store ptr %20, ptr %22, align 8
  %23 = load ptr, ptr %9, align 8
  %24 = getelementptr inbounds %struct.H5VL_attr_specific_args_t, ptr %13, i32 0, i32 1
  %25 = getelementptr inbounds %struct.anon.7, ptr %24, i32 0, i32 1
  store ptr %23, ptr %25, align 8
  %26 = load ptr, ptr %6, align 8
  %27 = load ptr, ptr %7, align 8
  %28 = load i64, ptr @H5P_LST_DATASET_XFER_ID_g, align 8
  %29 = load ptr, ptr %10, align 8
  %30 = call i32 @H5VL_attr_specific(ptr noundef %26, ptr noundef %27, ptr noundef %13, i64 noundef %28, ptr noundef %29)
  %31 = icmp slt i32 %30, 0
  br i1 %31, label %32, label %49

32:                                               ; preds = %18
  br label %33

33:                                               ; preds = %32
  br label %34

34:                                               ; preds = %33
  br label %35

35:                                               ; preds = %34
  %36 = load i64, ptr @H5E_ATTR_g, align 8
  %37 = load i64, ptr @H5E_CANTRENAME_g, align 8
  %38 = load ptr, ptr %8, align 8
  %39 = load ptr, ptr %9, align 8
  %40 = call i32 (ptr, ptr, i32, i64, i64, ptr, ...) @H5E_printf_stack(ptr noundef @.str, ptr noundef @__func__.H5A__rename_common, i32 noundef 1563, i64 noundef %36, i64 noundef %37, ptr noundef @.str.104, ptr noundef %38, ptr noundef %39)
  br label %41

41:                                               ; preds = %35
  store i8 1, ptr %12, align 1
  %42 = load i8, ptr %12, align 1
  %43 = trunc i8 %42 to i1
  %44 = zext i1 %43 to i8
  store i8 %44, ptr %12, align 1
  br label %45

45:                                               ; preds = %41
  br label %46

46:                                               ; preds = %45
  store i32 -1, ptr %11, align 4
  br label %51

47:                                               ; No predecessors!
  br label %48

48:                                               ; preds = %47
  br label %49

49:                                               ; preds = %48, %18
  br label %50

50:                                               ; preds = %49, %5
  br label %51

51:                                               ; preds = %50, %46
  %52 = load i32, ptr %11, align 4
  ret i32 %52
}

; Function Attrs: nounwind uwtable
define internal i32 @H5A__rename_by_name_api_common(i64 noundef %0, ptr noundef %1, ptr noundef %2, ptr noundef %3, i64 noundef %4, ptr noundef %5, ptr noundef %6) #0 {
  %8 = alloca i64, align 8
  %9 = alloca ptr, align 8
  %10 = alloca ptr, align 8
  %11 = alloca ptr, align 8
  %12 = alloca i64, align 8
  %13 = alloca ptr, align 8
  %14 = alloca ptr, align 8
  %15 = alloca ptr, align 8
  %16 = alloca ptr, align 8
  %17 = alloca %struct.H5VL_loc_params_t, align 8
  %18 = alloca i32, align 4
  %19 = alloca i8, align 1
  store i64 %0, ptr %8, align 8
  store ptr %1, ptr %9, align 8
  store ptr %2, ptr %10, align 8
  store ptr %3, ptr %11, align 8
  store i64 %4, ptr %12, align 8
  store ptr %5, ptr %13, align 8
  store ptr %6, ptr %14, align 8
  store ptr null, ptr %15, align 8
  %20 = load ptr, ptr %14, align 8
  %21 = icmp ne ptr %20, null
  br i1 %21, label %22, label %24

22:                                               ; preds = %7
  %23 = load ptr, ptr %14, align 8
  br label %25

24:                                               ; preds = %7
  br label %25

25:                                               ; preds = %24, %22
  %26 = phi ptr [ %23, %22 ], [ %15, %24 ]
  store ptr %26, ptr %16, align 8
  store i32 0, ptr %18, align 4
  store i8 0, ptr %19, align 1
  %27 = load i64, ptr %8, align 8
  %28 = call i32 @H5I_get_type(i64 noundef %27)
  %29 = icmp eq i32 7, %28
  br i1 %29, label %30, label %45

30:                                               ; preds = %25
  br label %31

31:                                               ; preds = %30
  br label %32

32:                                               ; preds = %31
  br label %33

33:                                               ; preds = %32
  %34 = load i64, ptr @H5E_ARGS_g, align 8
  %35 = load i64, ptr @H5E_BADTYPE_g, align 8
  %36 = call i32 (ptr, ptr, i32, i64, i64, ptr, ...) @H5E_printf_stack(ptr noundef @.str, ptr noundef @__func__.H5A__rename_by_name_api_common, i32 noundef 1700, i64 noundef %34, i64 noundef %35, ptr noundef @.str.43)
  br label %37

37:                                               ; preds = %33
  store i8 1, ptr %19, align 1
  %38 = load i8, ptr %19, align 1
  %39 = trunc i8 %38 to i1
  %40 = zext i1 %39 to i8
  store i8 %40, ptr %19, align 1
  br label %41

41:                                               ; preds = %37
  br label %42

42:                                               ; preds = %41
  store i32 -1, ptr %18, align 4
  br label %165

43:                                               ; No predecessors!
  br label %44

44:                                               ; preds = %43
  br label %45

45:                                               ; preds = %44, %25
  %46 = load ptr, ptr %10, align 8
  %47 = icmp ne ptr %46, null
  br i1 %47, label %63, label %48

48:                                               ; preds = %45
  br label %49

49:                                               ; preds = %48
  br label %50

50:                                               ; preds = %49
  br label %51

51:                                               ; preds = %50
  %52 = load i64, ptr @H5E_ARGS_g, align 8
  %53 = load i64, ptr @H5E_BADVALUE_g, align 8
  %54 = call i32 (ptr, ptr, i32, i64, i64, ptr, ...) @H5E_printf_stack(ptr noundef @.str, ptr noundef @__func__.H5A__rename_by_name_api_common, i32 noundef 1703, i64 noundef %52, i64 noundef %53, ptr noundef @.str.99)
  br label %55

55:                                               ; preds = %51
  store i8 1, ptr %19, align 1
  %56 = load i8, ptr %19, align 1
  %57 = trunc i8 %56 to i1
  %58 = zext i1 %57 to i8
  store i8 %58, ptr %19, align 1
  br label %59

59:                                               ; preds = %55
  br label %60

60:                                               ; preds = %59
  store i32 -1, ptr %18, align 4
  br label %165

61:                                               ; No predecessors!
  br label %62

62:                                               ; preds = %61
  br label %63

63:                                               ; preds = %62, %45
  %64 = load ptr, ptr %10, align 8
  %65 = load i8, ptr %64, align 1
  %66 = icmp ne i8 %65, 0
  br i1 %66, label %82, label %67

67:                                               ; preds = %63
  br label %68

68:                                               ; preds = %67
  br label %69

69:                                               ; preds = %68
  br label %70

70:                                               ; preds = %69
  %71 = load i64, ptr @H5E_ARGS_g, align 8
  %72 = load i64, ptr @H5E_BADVALUE_g, align 8
  %73 = call i32 (ptr, ptr, i32, i64, i64, ptr, ...) @H5E_printf_stack(ptr noundef @.str, ptr noundef @__func__.H5A__rename_by_name_api_common, i32 noundef 1705, i64 noundef %71, i64 noundef %72, ptr noundef @.str.100)
  br label %74

74:                                               ; preds = %70
  store i8 1, ptr %19, align 1
  %75 = load i8, ptr %19, align 1
  %76 = trunc i8 %75 to i1
  %77 = zext i1 %76 to i8
  store i8 %77, ptr %19, align 1
  br label %78

78:                                               ; preds = %74
  br label %79

79:                                               ; preds = %78
  store i32 -1, ptr %18, align 4
  br label %165

80:                                               ; No predecessors!
  br label %81

81:                                               ; preds = %80
  br label %82

82:                                               ; preds = %81, %63
  %83 = load ptr, ptr %11, align 8
  %84 = icmp ne ptr %83, null
  br i1 %84, label %100, label %85

85:                                               ; preds = %82
  br label %86

86:                                               ; preds = %85
  br label %87

87:                                               ; preds = %86
  br label %88

88:                                               ; preds = %87
  %89 = load i64, ptr @H5E_ARGS_g, align 8
  %90 = load i64, ptr @H5E_BADVALUE_g, align 8
  %91 = call i32 (ptr, ptr, i32, i64, i64, ptr, ...) @H5E_printf_stack(ptr noundef @.str, ptr noundef @__func__.H5A__rename_by_name_api_common, i32 noundef 1707, i64 noundef %89, i64 noundef %90, ptr noundef @.str.101)
  br label %92

92:                                               ; preds = %88
  store i8 1, ptr %19, align 1
  %93 = load i8, ptr %19, align 1
  %94 = trunc i8 %93 to i1
  %95 = zext i1 %94 to i8
  store i8 %95, ptr %19, align 1
  br label %96

96:                                               ; preds = %92
  br label %97

97:                                               ; preds = %96
  store i32 -1, ptr %18, align 4
  br label %165

98:                                               ; No predecessors!
  br label %99

99:                                               ; preds = %98
  br label %100

100:                                              ; preds = %99, %82
  %101 = load ptr, ptr %11, align 8
  %102 = load i8, ptr %101, align 1
  %103 = icmp ne i8 %102, 0
  br i1 %103, label %119, label %104

104:                                              ; preds = %100
  br label %105

105:                                              ; preds = %104
  br label %106

106:                                              ; preds = %105
  br label %107

107:                                              ; preds = %106
  %108 = load i64, ptr @H5E_ARGS_g, align 8
  %109 = load i64, ptr @H5E_BADVALUE_g, align 8
  %110 = call i32 (ptr, ptr, i32, i64, i64, ptr, ...) @H5E_printf_stack(ptr noundef @.str, ptr noundef @__func__.H5A__rename_by_name_api_common, i32 noundef 1709, i64 noundef %108, i64 noundef %109, ptr noundef @.str.102)
  br label %111

111:                                              ; preds = %107
  store i8 1, ptr %19, align 1
  %112 = load i8, ptr %19, align 1
  %113 = trunc i8 %112 to i1
  %114 = zext i1 %113 to i8
  store i8 %114, ptr %19, align 1
  br label %115

115:                                              ; preds = %111
  br label %116

116:                                              ; preds = %115
  store i32 -1, ptr %18, align 4
  br label %165

117:                                              ; No predecessors!
  br label %118

118:                                              ; preds = %117
  br label %119

119:                                              ; preds = %118, %100
  %120 = load i64, ptr %8, align 8
  %121 = load ptr, ptr %9, align 8
  %122 = load i64, ptr %12, align 8
  %123 = load ptr, ptr %16, align 8
  %124 = call i32 @H5VL_setup_name_args(i64 noundef %120, ptr noundef %121, i1 noundef zeroext true, i64 noundef %122, ptr noundef %123, ptr noundef %17)
  %125 = icmp slt i32 %124, 0
  br i1 %125, label %126, label %141

126:                                              ; preds = %119
  br label %127

127:                                              ; preds = %126
  br label %128

128:                                              ; preds = %127
  br label %129

129:                                              ; preds = %128
  %130 = load i64, ptr @H5E_ATTR_g, align 8
  %131 = load i64, ptr @H5E_CANTSET_g, align 8
  %132 = call i32 (ptr, ptr, i32, i64, i64, ptr, ...) @H5E_printf_stack(ptr noundef @.str, ptr noundef @__func__.H5A__rename_by_name_api_common, i32 noundef 1714, i64 noundef %130, i64 noundef %131, ptr noundef @.str.88)
  br label %133

133:                                              ; preds = %129
  store i8 1, ptr %19, align 1
  %134 = load i8, ptr %19, align 1
  %135 = trunc i8 %134 to i1
  %136 = zext i1 %135 to i8
  store i8 %136, ptr %19, align 1
  br label %137

137:                                              ; preds = %133
  br label %138

138:                                              ; preds = %137
  store i32 -1, ptr %18, align 4
  br label %165

139:                                              ; No predecessors!
  br label %140

140:                                              ; preds = %139
  br label %141

141:                                              ; preds = %140, %119
  %142 = load ptr, ptr %16, align 8
  %143 = load ptr, ptr %142, align 8
  %144 = load ptr, ptr %10, align 8
  %145 = load ptr, ptr %11, align 8
  %146 = load ptr, ptr %13, align 8
  %147 = call i32 @H5A__rename_common(ptr noundef %143, ptr noundef %17, ptr noundef %144, ptr noundef %145, ptr noundef %146)
  %148 = icmp slt i32 %147, 0
  br i1 %148, label %149, label %164

149:                                              ; preds = %141
  br label %150

150:                                              ; preds = %149
  br label %151

151:                                              ; preds = %150
  br label %152

152:                                              ; preds = %151
  %153 = load i64, ptr @H5E_ATTR_g, align 8
  %154 = load i64, ptr @H5E_CANTRENAME_g, align 8
  %155 = call i32 (ptr, ptr, i32, i64, i64, ptr, ...) @H5E_printf_stack(ptr noundef @.str, ptr noundef @__func__.H5A__rename_by_name_api_common, i32 noundef 1718, i64 noundef %153, i64 noundef %154, ptr noundef @.str.103)
  br label %156

156:                                              ; preds = %152
  store i8 1, ptr %19, align 1
  %157 = load i8, ptr %19, align 1
  %158 = trunc i8 %157 to i1
  %159 = zext i1 %158 to i8
  store i8 %159, ptr %19, align 1
  br label %160

160:                                              ; preds = %156
  br label %161

161:                                              ; preds = %160
  store i32 -1, ptr %18, align 4
  br label %165

162:                                              ; No predecessors!
  br label %163

163:                                              ; preds = %162
  br label %164

164:                                              ; preds = %163, %141
  br label %165

165:                                              ; preds = %164, %161, %138, %116, %97, %79, %60, %42
  %166 = load i32, ptr %18, align 4
  ret i32 %166
}