; Function Attrs: nounwind uwtable
define internal fastcc range(i32 -1, 1) i32 @H5A__rename_by_name_api_common(i64 noundef %0, ptr noundef %1, ptr noundef %2, ptr noundef %3, i64 noundef %4, ptr noundef %5, ptr noundef %6) unnamed_addr #0 {
  %8 = alloca %struct.H5VL_attr_specific_args_t, align 8
  %9 = alloca ptr, align 8
  %10 = alloca %struct.H5VL_loc_params_t, align 8
  store ptr null, ptr %9, align 8
  %.not = icmp eq ptr %6, null
  %11 = select i1 %.not, ptr %9, ptr %6
  %12 = tail call i32 @H5I_get_type(i64 noundef %0) #4
  %13 = icmp eq i32 %12, 7
  br i1 %13, label %14, label %18

14:                                               ; preds = %7
  %15 = load i64, ptr @H5E_ARGS_g, align 8
  %16 = load i64, ptr @H5E_BADTYPE_g, align 8
  %17 = tail call i32 (ptr, ptr, i32, i64, i64, ptr, ...) @H5E_printf_stack(ptr noundef nonnull @.str, ptr noundef nonnull @__func__.H5A__rename_by_name_api_common, i32 noundef 1700, i64 noundef %15, i64 noundef %16, ptr noundef nonnull @.str.43) #4
  br label %63

18:                                               ; preds = %7
  %.not24 = icmp eq ptr %2, null
  br i1 %.not24, label %19, label %23

19:                                               ; preds = %18
  %20 = load i64, ptr @H5E_ARGS_g, align 8
  %21 = load i64, ptr @H5E_BADVALUE_g, align 8
  %22 = tail call i32 (ptr, ptr, i32, i64, i64, ptr, ...) @H5E_printf_stack(ptr noundef nonnull @.str, ptr noundef nonnull @__func__.H5A__rename_by_name_api_common, i32 noundef 1703, i64 noundef %20, i64 noundef %21, ptr noundef nonnull @.str.99) #4
  br label %63

23:                                               ; preds = %18
  %24 = load i8, ptr %2, align 1
  %.not25 = icmp eq i8 %24, 0
  br i1 %.not25, label %25, label %29

25:                                               ; preds = %23
  %26 = load i64, ptr @H5E_ARGS_g, align 8
  %27 = load i64, ptr @H5E_BADVALUE_g, align 8
  %28 = tail call i32 (ptr, ptr, i32, i64, i64, ptr, ...) @H5E_printf_stack(ptr noundef nonnull @.str, ptr noundef nonnull @__func__.H5A__rename_by_name_api_common, i32 noundef 1705, i64 noundef %26, i64 noundef %27, ptr noundef nonnull @.str.100) #4
  br label %63

29:                                               ; preds = %23
  %.not26 = icmp eq ptr %3, null
  br i1 %.not26, label %30, label %34

30:                                               ; preds = %29
  %31 = load i64, ptr @H5E_ARGS_g, align 8
  %32 = load i64, ptr @H5E_BADVALUE_g, align 8
  %33 = tail call i32 (ptr, ptr, i32, i64, i64, ptr, ...) @H5E_printf_stack(ptr noundef nonnull @.str, ptr noundef nonnull @__func__.H5A__rename_by_name_api_common, i32 noundef 1707, i64 noundef %31, i64 noundef %32, ptr noundef nonnull @.str.101) #4
  br label %63

34:                                               ; preds = %29
  %35 = load i8, ptr %3, align 1
  %.not27 = icmp eq i8 %35, 0
  br i1 %.not27, label %36, label %40

36:                                               ; preds = %34
  %37 = load i64, ptr @H5E_ARGS_g, align 8
  %38 = load i64, ptr @H5E_BADVALUE_g, align 8
  %39 = tail call i32 (ptr, ptr, i32, i64, i64, ptr, ...) @H5E_printf_stack(ptr noundef nonnull @.str, ptr noundef nonnull @__func__.H5A__rename_by_name_api_common, i32 noundef 1709, i64 noundef %37, i64 noundef %38, ptr noundef nonnull @.str.102) #4
  br label %63

40:                                               ; preds = %34
  %41 = call i32 @H5VL_setup_name_args(i64 noundef %0, ptr noundef %1, i1 noundef zeroext true, i64 noundef %4, ptr noundef nonnull %11, ptr noundef nonnull %10) #4
  %42 = icmp slt i32 %41, 0
  br i1 %42, label %43, label %47

43:                                               ; preds = %40
  %44 = load i64, ptr @H5E_ATTR_g, align 8
  %45 = load i64, ptr @H5E_CANTSET_g, align 8
  %46 = call i32 (ptr, ptr, i32, i64, i64, ptr, ...) @H5E_printf_stack(ptr noundef nonnull @.str, ptr noundef nonnull @__func__.H5A__rename_by_name_api_common, i32 noundef 1714, i64 noundef %44, i64 noundef %45, ptr noundef nonnull @.str.88) #4
  br label %63

47:                                               ; preds = %40
  %48 = load ptr, ptr %11, align 8
  call void @llvm.lifetime.start.p0(i64 40, ptr nonnull %8)
  %49 = call i32 @strcmp(ptr noundef nonnull dereferenceable(1) %2, ptr noundef nonnull dereferenceable(1) %3) #5
  %.not.i = icmp eq i32 %49, 0
  br i1 %.not.i, label %H5A__rename_common.exit.thread, label %50

50:                                               ; preds = %47
  store i32 4, ptr %8, align 8
  %51 = getelementptr inbounds i8, ptr %8, i64 8
  store ptr %2, ptr %51, align 8
  %52 = getelementptr inbounds i8, ptr %8, i64 16
  store ptr %3, ptr %52, align 8
  %53 = load i64, ptr @H5P_LST_DATASET_XFER_ID_g, align 8
  %54 = call i32 @H5VL_attr_specific(ptr noundef %48, ptr noundef nonnull %10, ptr noundef nonnull %8, i64 noundef %53, ptr noundef %5) #4
  %55 = icmp slt i32 %54, 0
  br i1 %55, label %56, label %H5A__rename_common.exit.thread

H5A__rename_common.exit.thread:                   ; preds = %50, %47
  call void @llvm.lifetime.end.p0(i64 40, ptr nonnull %8)
  br label %63

56:                                               ; preds = %50
  %57 = load i64, ptr @H5E_ATTR_g, align 8
  %58 = load i64, ptr @H5E_CANTRENAME_g, align 8
  %59 = call i32 (ptr, ptr, i32, i64, i64, ptr, ...) @H5E_printf_stack(ptr noundef nonnull @.str, ptr noundef nonnull @__func__.H5A__rename_common, i32 noundef 1563, i64 noundef %57, i64 noundef %58, ptr noundef nonnull @.str.104, ptr noundef nonnull %2, ptr noundef nonnull %3) #4
  call void @llvm.lifetime.end.p0(i64 40, ptr nonnull %8)
  %60 = load i64, ptr @H5E_ATTR_g, align 8
  %61 = load i64, ptr @H5E_CANTRENAME_g, align 8
  %62 = call i32 (ptr, ptr, i32, i64, i64, ptr, ...) @H5E_printf_stack(ptr noundef nonnull @.str, ptr noundef nonnull @__func__.H5A__rename_by_name_api_common, i32 noundef 1718, i64 noundef %60, i64 noundef %61, ptr noundef nonnull @.str.103) #4
  br label %63

63:                                               ; preds = %H5A__rename_common.exit.thread, %56, %43, %36, %30, %25, %19, %14
  %.0 = phi i32 [ -1, %14 ], [ -1, %43 ], [ -1, %56 ], [ -1, %36 ], [ -1, %30 ], [ -1, %25 ], [ -1, %19 ], [ 0, %H5A__rename_common.exit.thread ]
  ret i32 %.0
}